target datalayout = "e-m:e-p270:32:32-p271:32:32-p272:64:64-i64:64-i128:128-f80:128-n8:16:32:64-S128"
target triple = "x86_64-pc-linux-gnu"

%"class.realclosure::manager" = type { ptr }
%"class.realclosure::save_interval_ctx" = type { ptr }

; Function Attrs: mustprogress nounwind uwtable
define linkonce_odr hidden void @_ZN11realclosure17save_interval_ctxC2EPKNS_7managerE(ptr noundef nonnull align 8 dereferenceable(8) %0, ptr noundef %1) unnamed_addr #4 comdat align 2 {
  %3 = alloca ptr, align 8
  %4 = alloca ptr, align 8
  store ptr %0, ptr %3, align 8, !tbaa !85
  store ptr %1, ptr %4, align 8, !tbaa !15
  %5 = load ptr, ptr %3, align 8
  %6 = getelementptr inbounds nuw %"class.realclosure::save_interval_ctx", ptr %5, i32 0, i32 0
  %7 = load ptr, ptr %4, align 8, !tbaa !15
  %8 = getelementptr inbounds nuw %"class.realclosure::manager", ptr %7, i32 0, i32 0
  %9 = load ptr, ptr %8, align 8, !tbaa !25
  store ptr %9, ptr %6, align 8, !tbaa !87
  ret void
}

; Function Attrs: mustprogress uwtable
define hidden void @_ZN11realclosure7manager18clean_denominatorsERKNS_3numERS1_S4_(ptr noundef nonnull align 8 dereferenceable(8) %0, ptr noundef nonnull align 8 dereferenceable(8) %1, ptr noundef nonnull align 8 dereferenceable(8) %2, ptr noundef nonnull align 8 dereferenceable(8) %3) #6 align 2 personality ptr @__gxx_personality_v0 {
  %5 = alloca ptr, align 8
  %6 = alloca ptr, align 8
  %7 = alloca ptr, align 8
  %8 = alloca ptr, align 8
  %9 = alloca %"class.realclosure::save_interval_ctx", align 8
  %10 = alloca ptr, align 8
  %11 = alloca i32, align 4
  store ptr %0, ptr %5, align 8, !tbaa !15
  store ptr %1, ptr %6, align 8, !tbaa !76
  store ptr %2, ptr %7, align 8, !tbaa !76
  store ptr %3, ptr %8, align 8, !tbaa !76
  %12 = load ptr, ptr %5, align 8
  call void @llvm.lifetime.start.p0(i64 8, ptr %9) #3
  call void @_ZN11realclosure17save_interval_ctxC2EPKNS_7managerE(ptr noundef nonnull align 8 dereferenceable(8) %9, ptr noundef %12)
  %13 = getelementptr inbounds nuw %"class.realclosure::manager", ptr %12, i32 0, i32 0
  %14 = load ptr, ptr %13, align 8, !tbaa !25
  %15 = load ptr, ptr %6, align 8, !tbaa !76
  %16 = load ptr, ptr %7, align 8, !tbaa !76
  %17 = load ptr, ptr %8, align 8, !tbaa !76
  invoke void @_ZN11realclosure7manager3imp18clean_denominatorsERKNS_3numERS2_S5_(ptr noundef nonnull align 8 dereferenceable(1497) %14, ptr noundef nonnull align 8 dereferenceable(8) %15, ptr noundef nonnull align 8 dereferenceable(8) %16, ptr noundef nonnull align 8 dereferenceable(8) %17)
          to label %18 unwind label %19

18:                                               ; preds = %4
  call void @_ZN11realclosure17save_interval_ctxD2Ev(ptr noundef nonnull align 8 dereferenceable(8) %9) #3
  call void @llvm.lifetime.end.p0(i64 8, ptr %9) #3
  ret void

19:                                               ; preds = %4
  %20 = landingpad { ptr, i32 }
          cleanup
  %21 = extractvalue { ptr, i32 } %20, 0
  store ptr %21, ptr %10, align 8
  %22 = extractvalue { ptr, i32 } %20, 1
  store i32 %22, ptr %11, align 4
  call void @_ZN11realclosure17save_interval_ctxD2Ev(ptr noundef nonnull align 8 dereferenceable(8) %9) #3
  call void @llvm.lifetime.end.p0(i64 8, ptr %9) #3
  br label %23

23:                                               ; preds = %19
  %24 = load ptr, ptr %10, align 8
  %25 = load i32, ptr %11, align 4
  %26 = insertvalue { ptr, i32 } poison, ptr %24, 0
  %27 = insertvalue { ptr, i32 } %26, i32 %25, 1
  resume { ptr, i32 } %27
}